target datalayout = "e-m:e-p270:32:32-p271:32:32-p272:64:64-i64:64-i128:128-f80:128-n8:16:32:64-S128"
target triple = "x86_64-pc-linux-gnu"

%struct.tm = type { i32, i32, i32, i32, i32, i32, i32, i32, i32, i64, ptr }

@ruby_tz_uptodate_p = hidden global i8 0, align 1
@.str.111 = private unnamed_addr constant [27 x i8] c"(NO-TIMEZONE-ABBREVIATION)\00", align 1

; Function Attrs: inlinehint nounwind sspstrong willreturn memory(none) uwtable
define internal i32 @rb_isascii(i32 noundef %0) #5 {
  %2 = alloca i32, align 4
  store i32 %0, ptr %2, align 4, !tbaa !20
  %3 = load i32, ptr %2, align 4, !tbaa !20
  %4 = icmp sle i32 0, %3
  br i1 %4, label %5, label %8

5:                                                ; preds = %1
  %6 = load i32, ptr %2, align 4, !tbaa !20
  %7 = icmp sle i32 %6, 127
  br label %8

8:                                                ; preds = %5, %1
  %9 = phi i1 [ false, %1 ], [ %7, %5 ]
  %10 = zext i1 %9 to i32
  ret i32 %10
}

; Function Attrs: nounwind sspstrong uwtable
define internal void @update_tz() #0 {
  %1 = load i8, ptr @ruby_tz_uptodate_p, align 1, !tbaa !7, !range !101, !noundef !102
  %2 = trunc i8 %1 to i1
  br i1 %2, label %3, label %4

3:                                                ; preds = %0
  br label %5

4:                                                ; preds = %0
  store i8 1, ptr @ruby_tz_uptodate_p, align 1, !tbaa !7
  call void @tzset() #22
  br label %5

5:                                                ; preds = %4, %3
  ret void
}

; Function Attrs: nounwind sspstrong uwtable
define internal i64 @zone_str(ptr noundef %0) #0 {
  %2 = alloca i64, align 8
  %3 = alloca ptr, align 8
  %4 = alloca ptr, align 8
  %5 = alloca i32, align 4
  %6 = alloca i64, align 8
  %7 = alloca i64, align 8
  %8 = alloca i32, align 4
  store ptr %0, ptr %3, align 8, !tbaa !25
  call void @llvm.lifetime.start.p0(i64 8, ptr %4) #22
  call void @llvm.lifetime.start.p0(i64 4, ptr %5) #22
  store i32 1, ptr %5, align 4, !tbaa !20
  call void @llvm.lifetime.start.p0(i64 8, ptr %6) #22
  call void @llvm.lifetime.start.p0(i64 8, ptr %7) #22
  %9 = load ptr, ptr %3, align 8, !tbaa !25
  %10 = icmp eq ptr %9, null
  br i1 %10, label %11, label %13

11:                                               ; preds = %1
  %12 = call i64 @rb_fstring_new(ptr noundef @.str.111, i64 noundef 26)
  store i64 %12, ptr %2, align 8
  store i32 1, ptr %8, align 4
  br label %66

13:                                               ; preds = %1
  %14 = load ptr, ptr %3, align 8, !tbaa !25
  store ptr %14, ptr %4, align 8, !tbaa !25
  br label %15

15:                                               ; preds = %31, %13
  %16 = load ptr, ptr %4, align 8, !tbaa !25
  %17 = load i8, ptr %16, align 1, !tbaa !37
  %18 = icmp ne i8 %17, 0
  br i1 %18, label %19, label %34

19:                                               ; preds = %15
  %20 = load ptr, ptr %4, align 8, !tbaa !25
  %21 = load i8, ptr %20, align 1, !tbaa !37
  %22 = sext i8 %21 to i32
  %23 = call i32 @rb_isascii(i32 noundef %22) #24
  %24 = icmp ne i32 %23, 0
  br i1 %24, label %30, label %25

25:                                               ; preds = %19
  store i32 0, ptr %5, align 4, !tbaa !20
  %26 = load ptr, ptr %4, align 8, !tbaa !25
  %27 = call i64 @strlen(ptr noundef %26) #25
  %28 = load ptr, ptr %4, align 8, !tbaa !25
  %29 = getelementptr i8, ptr %28, i64 %27
  store ptr %29, ptr %4, align 8, !tbaa !25
  br label %34

30:                                               ; preds = %19
  br label %31

31:                                               ; preds = %30
  %32 = load ptr, ptr %4, align 8, !tbaa !25
  %33 = getelementptr i8, ptr %32, i32 1
  store ptr %33, ptr %4, align 8, !tbaa !25
  br label %15, !llvm.loop !109

34:                                               ; preds = %25, %15
  %35 = load ptr, ptr %4, align 8, !tbaa !25
  %36 = load ptr, ptr %3, align 8, !tbaa !25
  %37 = ptrtoint ptr %35 to i64
  %38 = ptrtoint ptr %36 to i64
  %39 = sub i64 %37, %38
  store i64 %39, ptr %7, align 8, !tbaa !11
  %40 = load i32, ptr %5, align 4, !tbaa !20
  %41 = icmp ne i32 %40, 0
  br i1 %41, label %42, label %52

42:                                               ; preds = %34
  br i1 false, label %43, label %46

43:                                               ; preds = %42
  %44 = load i64, ptr %7, align 8, !tbaa !11
  %45 = call i1 @llvm.is.constant.i64(i64 %44)
  br label %46

46:                                               ; preds = %43, %42
  %47 = phi i1 [ false, %42 ], [ %45, %43 ]
  %48 = select i1 %47, ptr @rb_usascii_str_new_static, ptr @rb_usascii_str_new
  %49 = load ptr, ptr %3, align 8, !tbaa !25
  %50 = load i64, ptr %7, align 8, !tbaa !11
  %51 = call i64 %48(ptr noundef %49, i64 noundef %50)
  store i64 %51, ptr %6, align 8, !tbaa !11
  br label %63

52:                                               ; preds = %34
  br i1 false, label %53, label %56

53:                                               ; preds = %52
  %54 = load i64, ptr %7, align 8, !tbaa !11
  %55 = call i1 @llvm.is.constant.i64(i64 %54)
  br label %56

56:                                               ; preds = %53, %52
  %57 = phi i1 [ false, %52 ], [ %55, %53 ]
  %58 = select i1 %57, ptr @rb_enc_str_new_static, ptr @rb_enc_str_new
  %59 = load ptr, ptr %3, align 8, !tbaa !25
  %60 = load i64, ptr %7, align 8, !tbaa !11
  %61 = call ptr @rb_locale_encoding()
  %62 = call i64 %58(ptr noundef %59, i64 noundef %60, ptr noundef %61)
  store i64 %62, ptr %6, align 8, !tbaa !11
  br label %63

63:                                               ; preds = %56, %46
  %64 = load i64, ptr %6, align 8, !tbaa !11
  %65 = call i64 @rb_fstring(i64 noundef %64)
  store i64 %65, ptr %2, align 8
  store i32 1, ptr %8, align 4
  br label %66

66:                                               ; preds = %63, %11
  call void @llvm.lifetime.end.p0(i64 8, ptr %7) #22
  call void @llvm.lifetime.end.p0(i64 8, ptr %6) #22
  call void @llvm.lifetime.end.p0(i64 4, ptr %5) #22
  call void @llvm.lifetime.end.p0(i64 8, ptr %4) #22
  %67 = load i64, ptr %2, align 8
  ret i64 %67
}

; Function Attrs: nounwind sspstrong uwtable
define internal ptr @rb_localtime_r(ptr noundef %0, ptr noundef %1) #0 {
  %3 = alloca ptr, align 8
  %4 = alloca ptr, align 8
  store ptr %0, ptr %3, align 8, !tbaa !16
  store ptr %1, ptr %4, align 8, !tbaa !95
  call void @update_tz()
  %5 = load ptr, ptr %3, align 8, !tbaa !16
  %6 = load ptr, ptr %4, align 8, !tbaa !95
  %7 = call ptr @localtime_r(ptr noundef %5, ptr noundef %6) #22
  store ptr %7, ptr %4, align 8, !tbaa !95
  %8 = load ptr, ptr %4, align 8, !tbaa !95
  ret ptr %8
}

; Function Attrs: nounwind sspstrong uwtable
define internal ptr @localtime_with_gmtoff_zone(ptr noundef %0, ptr noundef %1, ptr noundef %2, ptr noundef %3) #0 {
  %5 = alloca ptr, align 8
  %6 = alloca ptr, align 8
  %7 = alloca ptr, align 8
  %8 = alloca ptr, align 8
  %9 = alloca ptr, align 8
  %10 = alloca %struct.tm, align 8
  %11 = alloca i32, align 4
  store ptr %0, ptr %6, align 8, !tbaa !16
  store ptr %1, ptr %7, align 8, !tbaa !95
  store ptr %2, ptr %8, align 8, !tbaa !16
  store ptr %3, ptr %9, align 8, !tbaa !16
  call void @llvm.lifetime.start.p0(i64 56, ptr %10) #22
  %12 = load ptr, ptr %6, align 8, !tbaa !16
  %13 = call ptr @rb_localtime_r(ptr noundef %12, ptr noundef %10)
  %14 = icmp ne ptr %13, null
  br i1 %14, label %15, label %29

15:                                               ; preds = %4
  %16 = getelementptr inbounds nuw %struct.tm, ptr %10, i32 0, i32 9
  %17 = load i64, ptr %16, align 8, !tbaa !97
  %18 = load ptr, ptr %8, align 8, !tbaa !16
  store i64 %17, ptr %18, align 8, !tbaa !11
  %19 = load ptr, ptr %9, align 8, !tbaa !16
  %20 = icmp ne ptr %19, null
  br i1 %20, label %21, label %26

21:                                               ; preds = %15
  %22 = getelementptr inbounds nuw %struct.tm, ptr %10, i32 0, i32 10
  %23 = load ptr, ptr %22, align 8, !tbaa !98
  %24 = call i64 @zone_str(ptr noundef %23)
  %25 = load ptr, ptr %9, align 8, !tbaa !16
  store i64 %24, ptr %25, align 8, !tbaa !11
  br label %26

26:                                               ; preds = %21, %15
  %27 = load ptr, ptr %7, align 8, !tbaa !95
  call void @llvm.memcpy.p0.p0.i64(ptr align 8 %27, ptr align 8 %10, i64 56, i1 false), !tbaa.struct !106
  %28 = load ptr, ptr %7, align 8, !tbaa !95
  store ptr %28, ptr %5, align 8
  store i32 1, ptr %11, align 4
  br label %30

29:                                               ; preds = %4
  store ptr null, ptr %5, align 8
  store i32 1, ptr %11, align 4
  br label %30

30:                                               ; preds = %29, %26
  call void @llvm.lifetime.end.p0(i64 56, ptr %10) #22
  %31 = load ptr, ptr %5, align 8
  ret ptr %31
}