; Function Attrs: nounwind sspstrong uwtable
define internal fastcc noundef ptr @localtime_with_gmtoff_zone(ptr noundef %0, ptr noundef nonnull writeonly captures(ret: address, provenance) %1, ptr noundef writeonly captures(none) %2, ptr noundef nonnull writeonly captures(none) %3) unnamed_addr #1 {
  %5 = alloca %struct.tm, align 8
  call void @llvm.lifetime.start.p0(i64 56, ptr nonnull %5) #21
  %6 = load i8, ptr @ruby_tz_uptodate_p, align 1, !tbaa !7, !range !115, !noundef !116
  %7 = trunc nuw i8 %6 to i1
  br i1 %7, label %rb_localtime_r.exit, label %8

8:                                                ; preds = %4
  store i8 1, ptr @ruby_tz_uptodate_p, align 1, !tbaa !7
  tail call void @tzset() #21
  br label %rb_localtime_r.exit

rb_localtime_r.exit:                              ; preds = %4, %8
  %9 = call ptr @localtime_r(ptr noundef %0, ptr noundef nonnull %5) #21
  %.not = icmp eq ptr %9, null
  br i1 %.not, label %38, label %10

10:                                               ; preds = %rb_localtime_r.exit
  %11 = getelementptr inbounds nuw i8, ptr %5, i64 40
  %12 = load i64, ptr %11, align 8, !tbaa !117
  store i64 %12, ptr %2, align 8, !tbaa !11
  %13 = getelementptr inbounds nuw i8, ptr %5, i64 48
  %14 = load ptr, ptr %13, align 8, !tbaa !118
  %15 = icmp eq ptr %14, null
  br i1 %15, label %17, label %.preheader.i

.preheader.i:                                     ; preds = %10
  %16 = load i8, ptr %14, align 1, !tbaa !54
  %.not.not24.i = icmp eq i8 %16, 0
  br i1 %.not.not24.i, label %._crit_edge.i, label %.lr.ph.i

17:                                               ; preds = %10
  %18 = call i64 @rb_fstring_new(ptr noundef nonnull @.str.111, i64 noundef 26) #21
  br label %zone_str.exit

.lr.ph.i:                                         ; preds = %.preheader.i, %21
  %19 = phi i8 [ %23, %21 ], [ %16, %.preheader.i ]
  %.01725.i = phi ptr [ %22, %21 ], [ %14, %.preheader.i ]
  %20 = icmp slt i8 %19, 0
  br i1 %20, label %28, label %21

21:                                               ; preds = %.lr.ph.i
  %22 = getelementptr i8, ptr %.01725.i, i64 1
  %23 = load i8, ptr %22, align 1, !tbaa !54
  %.not.not.i = icmp eq i8 %23, 0
  br i1 %.not.not.i, label %._crit_edge.i, label %.lr.ph.i, !llvm.loop !128

._crit_edge.i:                                    ; preds = %21, %.preheader.i
  %.017.lcssa.i = phi ptr [ %14, %.preheader.i ], [ %22, %21 ]
  %24 = ptrtoint ptr %.017.lcssa.i to i64
  %25 = ptrtoint ptr %14 to i64
  %26 = sub i64 %24, %25
  %27 = call i64 @rb_usascii_str_new(ptr noundef nonnull %14, i64 noundef %26) #21
  br label %36

28:                                               ; preds = %.lr.ph.i
  %29 = call i64 @strlen(ptr noundef nonnull dereferenceable(1) %.01725.i) #24
  %30 = getelementptr i8, ptr %.01725.i, i64 %29
  %31 = ptrtoint ptr %30 to i64
  %32 = ptrtoint ptr %14 to i64
  %33 = sub i64 %31, %32
  %34 = call ptr @rb_locale_encoding() #21
  %35 = call i64 @rb_enc_str_new(ptr noundef nonnull %14, i64 noundef %33, ptr noundef %34) #21
  br label %36

36:                                               ; preds = %28, %._crit_edge.i
  %.015.i = phi i64 [ %27, %._crit_edge.i ], [ %35, %28 ]
  %37 = call i64 @rb_fstring(i64 noundef %.015.i) #21
  br label %zone_str.exit

zone_str.exit:                                    ; preds = %17, %36
  %.0.i = phi i64 [ %18, %17 ], [ %37, %36 ]
  store i64 %.0.i, ptr %3, align 8, !tbaa !11
  call void @llvm.memcpy.p0.p0.i64(ptr noundef nonnull align 8 dereferenceable(56) %1, ptr noundef nonnull align 8 dereferenceable(56) %5, i64 56, i1 false), !tbaa.struct !129
  br label %38

38:                                               ; preds = %rb_localtime_r.exit, %zone_str.exit
  %.0 = phi ptr [ %1, %zone_str.exit ], [ null, %rb_localtime_r.exit ]
  call void @llvm.lifetime.end.p0(i64 56, ptr nonnull %5) #21
  ret ptr %.0
}